target datalayout = "e-m:e-p270:32:32-p271:32:32-p272:64:64-i64:64-i128:128-f80:128-n8:16:32:64-S128"
target triple = "x86_64-pc-linux-gnu"

%struct.VP8EncIterator = type { i32, i32, ptr, ptr, ptr, ptr, ptr, ptr, ptr, ptr, ptr, [37 x i8], ptr, i32, [9 x i32], [9 x i32], [4 x [3 x i64]], i64, i64, ptr, i32, i32, i32, i32, [2 x [2 x i8]], ptr, ptr, ptr, ptr, ptr, ptr, [88 x i8], [3359 x i8] }
%struct.VP8Encoder = type { ptr, ptr, %struct.VP8EncFilterHeader, %struct.VP8EncSegmentHeader, i32, i32, i32, i32, i32, %struct.VP8BitWriter, [8 x %struct.VP8BitWriter], %struct.VP8TBuffer, i32, i32, ptr, i32, %struct.WebPWorker, [4 x %struct.VP8SegmentInfo], i32, i32, i32, i32, i32, i32, i32, i32, %struct.VP8EncProba, [4 x i64], i64, i32, [3 x [4 x i32]], [3 x i32], i32, i32, i32, i32, i32, i32, i32, ptr, ptr, ptr, ptr, ptr, ptr, ptr }
%struct.VP8EncFilterHeader = type { i32, i32, i32, i32 }
%struct.VP8EncSegmentHeader = type { i32, i32, i32 }
%struct.VP8BitWriter = type { i32, i32, i32, i32, ptr, i64, i64, i32 }
%struct.VP8TBuffer = type { ptr, ptr, ptr, i32, i32, i32 }
%struct.WebPWorker = type { ptr, i32, ptr, ptr, ptr, i32 }
%struct.VP8SegmentInfo = type { %struct.VP8Matrix, %struct.VP8Matrix, %struct.VP8Matrix, i32, i32, i32, i32, i32, i32, i32, i32, i32, i32, i32, i32, i32, i32, i32, i64 }
%struct.VP8Matrix = type { [16 x i16], [16 x i16], [16 x i32], [16 x i32], [16 x i16] }
%struct.VP8EncProba = type { [3 x i8], i8, [4 x [8 x [3 x [11 x i8]]]], [4 x [8 x [3 x [11 x i32]]]], [4 x [8 x [3 x [68 x i16]]]], [4 x [16 x [3 x ptr]]], i32, i32, i32 }
%struct.WebPPicture = type { i32, i32, i32, i32, ptr, ptr, ptr, i32, i32, ptr, i32, [2 x i32], ptr, i32, [3 x i32], ptr, ptr, i32, ptr, ptr, i32, ptr, ptr, [3 x i32], ptr, ptr, [8 x i32], ptr, ptr, [2 x ptr] }
%struct.VP8MBInfo = type { i8, i8, [2 x i8] }

@VP8SSE16x16 = external global ptr, align 8
@VP8SSE8x8 = external global ptr, align 8

; Function Attrs: nounwind uwtable
define internal void @StoreSSE(ptr noundef %0) #0 {
  %2 = alloca ptr, align 8
  %3 = alloca ptr, align 8
  %4 = alloca ptr, align 8
  %5 = alloca ptr, align 8
  store ptr %0, ptr %2, align 8, !tbaa !56
  call void @llvm.lifetime.start.p0(i64 8, ptr %3) #7
  %6 = load ptr, ptr %2, align 8, !tbaa !56
  %7 = getelementptr inbounds nuw %struct.VP8EncIterator, ptr %6, i32 0, i32 6
  %8 = load ptr, ptr %7, align 8, !tbaa !58
  store ptr %8, ptr %3, align 8, !tbaa !3
  call void @llvm.lifetime.start.p0(i64 8, ptr %4) #7
  %9 = load ptr, ptr %2, align 8, !tbaa !56
  %10 = getelementptr inbounds nuw %struct.VP8EncIterator, ptr %9, i32 0, i32 2
  %11 = load ptr, ptr %10, align 8, !tbaa !143
  store ptr %11, ptr %4, align 8, !tbaa !74
  call void @llvm.lifetime.start.p0(i64 8, ptr %5) #7
  %12 = load ptr, ptr %2, align 8, !tbaa !56
  %13 = getelementptr inbounds nuw %struct.VP8EncIterator, ptr %12, i32 0, i32 3
  %14 = load ptr, ptr %13, align 8, !tbaa !144
  store ptr %14, ptr %5, align 8, !tbaa !74
  %15 = load ptr, ptr @VP8SSE16x16, align 8, !tbaa !56
  %16 = load ptr, ptr %4, align 8, !tbaa !74
  %17 = getelementptr inbounds i8, ptr %16, i64 0
  %18 = load ptr, ptr %5, align 8, !tbaa !74
  %19 = getelementptr inbounds i8, ptr %18, i64 0
  %20 = call i32 %15(ptr noundef %17, ptr noundef %19)
  %21 = sext i32 %20 to i64
  %22 = load ptr, ptr %3, align 8, !tbaa !3
  %23 = getelementptr inbounds nuw %struct.VP8Encoder, ptr %22, i32 0, i32 27
  %24 = getelementptr inbounds [4 x i64], ptr %23, i64 0, i64 0
  %25 = load i64, ptr %24, align 8, !tbaa !52
  %26 = add i64 %25, %21
  store i64 %26, ptr %24, align 8, !tbaa !52
  %27 = load ptr, ptr @VP8SSE8x8, align 8, !tbaa !56
  %28 = load ptr, ptr %4, align 8, !tbaa !74
  %29 = getelementptr inbounds i8, ptr %28, i64 16
  %30 = load ptr, ptr %5, align 8, !tbaa !74
  %31 = getelementptr inbounds i8, ptr %30, i64 16
  %32 = call i32 %27(ptr noundef %29, ptr noundef %31)
  %33 = sext i32 %32 to i64
  %34 = load ptr, ptr %3, align 8, !tbaa !3
  %35 = getelementptr inbounds nuw %struct.VP8Encoder, ptr %34, i32 0, i32 27
  %36 = getelementptr inbounds [4 x i64], ptr %35, i64 0, i64 1
  %37 = load i64, ptr %36, align 8, !tbaa !52
  %38 = add i64 %37, %33
  store i64 %38, ptr %36, align 8, !tbaa !52
  %39 = load ptr, ptr @VP8SSE8x8, align 8, !tbaa !56
  %40 = load ptr, ptr %4, align 8, !tbaa !74
  %41 = getelementptr inbounds i8, ptr %40, i64 24
  %42 = load ptr, ptr %5, align 8, !tbaa !74
  %43 = getelementptr inbounds i8, ptr %42, i64 24
  %44 = call i32 %39(ptr noundef %41, ptr noundef %43)
  %45 = sext i32 %44 to i64
  %46 = load ptr, ptr %3, align 8, !tbaa !3
  %47 = getelementptr inbounds nuw %struct.VP8Encoder, ptr %46, i32 0, i32 27
  %48 = getelementptr inbounds [4 x i64], ptr %47, i64 0, i64 2
  %49 = load i64, ptr %48, align 8, !tbaa !52
  %50 = add i64 %49, %45
  store i64 %50, ptr %48, align 8, !tbaa !52
  %51 = load ptr, ptr %3, align 8, !tbaa !3
  %52 = getelementptr inbounds nuw %struct.VP8Encoder, ptr %51, i32 0, i32 28
  %53 = load i64, ptr %52, align 8, !tbaa !145
  %54 = add i64 %53, 256
  store i64 %54, ptr %52, align 8, !tbaa !145
  call void @llvm.lifetime.end.p0(i64 8, ptr %5) #7
  call void @llvm.lifetime.end.p0(i64 8, ptr %4) #7
  call void @llvm.lifetime.end.p0(i64 8, ptr %3) #7
  ret void
}

; Function Attrs: nounwind uwtable
define internal void @StoreSideInfo(ptr noundef %0) #0 {
  %2 = alloca ptr, align 8
  %3 = alloca ptr, align 8
  %4 = alloca ptr, align 8
  %5 = alloca ptr, align 8
  %6 = alloca ptr, align 8
  %7 = alloca i32, align 4
  store ptr %0, ptr %2, align 8, !tbaa !56
  call void @llvm.lifetime.start.p0(i64 8, ptr %3) #7
  %8 = load ptr, ptr %2, align 8, !tbaa !56
  %9 = getelementptr inbounds nuw %struct.VP8EncIterator, ptr %8, i32 0, i32 6
  %10 = load ptr, ptr %9, align 8, !tbaa !58
  store ptr %10, ptr %3, align 8, !tbaa !3
  call void @llvm.lifetime.start.p0(i64 8, ptr %4) #7
  %11 = load ptr, ptr %2, align 8, !tbaa !56
  %12 = getelementptr inbounds nuw %struct.VP8EncIterator, ptr %11, i32 0, i32 7
  %13 = load ptr, ptr %12, align 8, !tbaa !57
  store ptr %13, ptr %4, align 8, !tbaa !56
  call void @llvm.lifetime.start.p0(i64 8, ptr %5) #7
  %14 = load ptr, ptr %3, align 8, !tbaa !3
  %15 = getelementptr inbounds nuw %struct.VP8Encoder, ptr %14, i32 0, i32 1
  %16 = load ptr, ptr %15, align 8, !tbaa !40
  store ptr %16, ptr %5, align 8, !tbaa !67
  %17 = load ptr, ptr %5, align 8, !tbaa !67
  %18 = getelementptr inbounds nuw %struct.WebPPicture, ptr %17, i32 0, i32 19
  %19 = load ptr, ptr %18, align 8, !tbaa !68
  %20 = icmp ne ptr %19, null
  br i1 %20, label %21, label %57

21:                                               ; preds = %1
  %22 = load ptr, ptr %2, align 8, !tbaa !56
  call void @StoreSSE(ptr noundef %22)
  %23 = load ptr, ptr %4, align 8, !tbaa !56
  %24 = load i8, ptr %23, align 4
  %25 = and i8 %24, 3
  %26 = zext i8 %25 to i32
  %27 = icmp eq i32 %26, 0
  %28 = zext i1 %27 to i32
  %29 = load ptr, ptr %3, align 8, !tbaa !3
  %30 = getelementptr inbounds nuw %struct.VP8Encoder, ptr %29, i32 0, i32 31
  %31 = getelementptr inbounds [3 x i32], ptr %30, i64 0, i64 0
  %32 = load i32, ptr %31, align 4, !tbaa !8
  %33 = add nsw i32 %32, %28
  store i32 %33, ptr %31, align 4, !tbaa !8
  %34 = load ptr, ptr %4, align 8, !tbaa !56
  %35 = load i8, ptr %34, align 4
  %36 = and i8 %35, 3
  %37 = zext i8 %36 to i32
  %38 = icmp eq i32 %37, 1
  %39 = zext i1 %38 to i32
  %40 = load ptr, ptr %3, align 8, !tbaa !3
  %41 = getelementptr inbounds nuw %struct.VP8Encoder, ptr %40, i32 0, i32 31
  %42 = getelementptr inbounds [3 x i32], ptr %41, i64 0, i64 1
  %43 = load i32, ptr %42, align 4, !tbaa !8
  %44 = add nsw i32 %43, %39
  store i32 %44, ptr %42, align 4, !tbaa !8
  %45 = load ptr, ptr %4, align 8, !tbaa !56
  %46 = load i8, ptr %45, align 4
  %47 = lshr i8 %46, 4
  %48 = and i8 %47, 1
  %49 = zext i8 %48 to i32
  %50 = icmp ne i32 %49, 0
  %51 = zext i1 %50 to i32
  %52 = load ptr, ptr %3, align 8, !tbaa !3
  %53 = getelementptr inbounds nuw %struct.VP8Encoder, ptr %52, i32 0, i32 31
  %54 = getelementptr inbounds [3 x i32], ptr %53, i64 0, i64 2
  %55 = load i32, ptr %54, align 4, !tbaa !8
  %56 = add nsw i32 %55, %51
  store i32 %56, ptr %54, align 4, !tbaa !8
  br label %57

57:                                               ; preds = %21, %1
  %58 = load ptr, ptr %5, align 8, !tbaa !67
  %59 = getelementptr inbounds nuw %struct.WebPPicture, ptr %58, i32 0, i32 18
  %60 = load ptr, ptr %59, align 8, !tbaa !71
  %61 = icmp ne ptr %60, null
  br i1 %61, label %62, label %165

62:                                               ; preds = %57
  call void @llvm.lifetime.start.p0(i64 8, ptr %6) #7
  %63 = load ptr, ptr %5, align 8, !tbaa !67
  %64 = getelementptr inbounds nuw %struct.WebPPicture, ptr %63, i32 0, i32 18
  %65 = load ptr, ptr %64, align 8, !tbaa !71
  %66 = load ptr, ptr %2, align 8, !tbaa !56
  %67 = getelementptr inbounds nuw %struct.VP8EncIterator, ptr %66, i32 0, i32 0
  %68 = load i32, ptr %67, align 8, !tbaa !72
  %69 = load ptr, ptr %2, align 8, !tbaa !56
  %70 = getelementptr inbounds nuw %struct.VP8EncIterator, ptr %69, i32 0, i32 1
  %71 = load i32, ptr %70, align 4, !tbaa !73
  %72 = load ptr, ptr %3, align 8, !tbaa !3
  %73 = getelementptr inbounds nuw %struct.VP8Encoder, ptr %72, i32 0, i32 5
  %74 = load i32, ptr %73, align 8, !tbaa !36
  %75 = mul nsw i32 %71, %74
  %76 = add nsw i32 %68, %75
  %77 = sext i32 %76 to i64
  %78 = getelementptr inbounds i8, ptr %65, i64 %77
  store ptr %78, ptr %6, align 8, !tbaa !74
  %79 = load ptr, ptr %5, align 8, !tbaa !67
  %80 = getelementptr inbounds nuw %struct.WebPPicture, ptr %79, i32 0, i32 17
  %81 = load i32, ptr %80, align 8, !tbaa !75
  switch i32 %81, label %162 [
    i32 1, label %82
    i32 2, label %89
    i32 3, label %97
    i32 4, label %111
    i32 5, label %129
    i32 6, label %137
    i32 7, label %157
  ]

82:                                               ; preds = %62
  %83 = load ptr, ptr %4, align 8, !tbaa !56
  %84 = load i8, ptr %83, align 4
  %85 = and i8 %84, 3
  %86 = zext i8 %85 to i32
  %87 = trunc i32 %86 to i8
  %88 = load ptr, ptr %6, align 8, !tbaa !74
  store i8 %87, ptr %88, align 1, !tbaa !35
  br label %164

89:                                               ; preds = %62
  %90 = load ptr, ptr %4, align 8, !tbaa !56
  %91 = load i8, ptr %90, align 4
  %92 = lshr i8 %91, 5
  %93 = and i8 %92, 3
  %94 = zext i8 %93 to i32
  %95 = trunc i32 %94 to i8
  %96 = load ptr, ptr %6, align 8, !tbaa !74
  store i8 %95, ptr %96, align 1, !tbaa !35
  br label %164

97:                                               ; preds = %62
  %98 = load ptr, ptr %3, align 8, !tbaa !3
  %99 = getelementptr inbounds nuw %struct.VP8Encoder, ptr %98, i32 0, i32 17
  %100 = load ptr, ptr %4, align 8, !tbaa !56
  %101 = load i8, ptr %100, align 4
  %102 = lshr i8 %101, 5
  %103 = and i8 %102, 3
  %104 = zext i8 %103 to i32
  %105 = zext i32 %104 to i64
  %106 = getelementptr inbounds nuw [4 x %struct.VP8SegmentInfo], ptr %99, i64 0, i64 %105
  %107 = getelementptr inbounds nuw %struct.VP8SegmentInfo, ptr %106, i32 0, i32 5
  %108 = load i32, ptr %107, align 8, !tbaa !76
  %109 = trunc i32 %108 to i8
  %110 = load ptr, ptr %6, align 8, !tbaa !74
  store i8 %109, ptr %110, align 1, !tbaa !35
  br label %164

111:                                              ; preds = %62
  %112 = load ptr, ptr %4, align 8, !tbaa !56
  %113 = load i8, ptr %112, align 4
  %114 = and i8 %113, 3
  %115 = zext i8 %114 to i32
  %116 = icmp eq i32 %115, 1
  br i1 %116, label %117, label %124

117:                                              ; preds = %111
  %118 = load ptr, ptr %2, align 8, !tbaa !56
  %119 = getelementptr inbounds nuw %struct.VP8EncIterator, ptr %118, i32 0, i32 9
  %120 = load ptr, ptr %119, align 8, !tbaa !79
  %121 = getelementptr inbounds i8, ptr %120, i64 0
  %122 = load i8, ptr %121, align 1, !tbaa !35
  %123 = zext i8 %122 to i32
  br label %125

124:                                              ; preds = %111
  br label %125

125:                                              ; preds = %124, %117
  %126 = phi i32 [ %123, %117 ], [ 255, %124 ]
  %127 = trunc i32 %126 to i8
  %128 = load ptr, ptr %6, align 8, !tbaa !74
  store i8 %127, ptr %128, align 1, !tbaa !35
  br label %164

129:                                              ; preds = %62
  %130 = load ptr, ptr %4, align 8, !tbaa !56
  %131 = load i8, ptr %130, align 4
  %132 = lshr i8 %131, 2
  %133 = and i8 %132, 3
  %134 = zext i8 %133 to i32
  %135 = trunc i32 %134 to i8
  %136 = load ptr, ptr %6, align 8, !tbaa !74
  store i8 %135, ptr %136, align 1, !tbaa !35
  br label %164

137:                                              ; preds = %62
  call void @llvm.lifetime.start.p0(i64 4, ptr %7) #7
  %138 = load ptr, ptr %2, align 8, !tbaa !56
  %139 = getelementptr inbounds nuw %struct.VP8EncIterator, ptr %138, i32 0, i32 17
  %140 = load i64, ptr %139, align 8, !tbaa !64
  %141 = load ptr, ptr %2, align 8, !tbaa !56
  %142 = getelementptr inbounds nuw %struct.VP8EncIterator, ptr %141, i32 0, i32 18
  %143 = load i64, ptr %142, align 8, !tbaa !65
  %144 = add i64 %140, %143
  %145 = add i64 %144, 7
  %146 = lshr i64 %145, 3
  %147 = trunc i64 %146 to i32
  store i32 %147, ptr %7, align 4, !tbaa !8
  %148 = load i32, ptr %7, align 4, !tbaa !8
  %149 = icmp sgt i32 %148, 255
  br i1 %149, label %150, label %151

150:                                              ; preds = %137
  br label %153

151:                                              ; preds = %137
  %152 = load i32, ptr %7, align 4, !tbaa !8
  br label %153

153:                                              ; preds = %151, %150
  %154 = phi i32 [ 255, %150 ], [ %152, %151 ]
  %155 = trunc i32 %154 to i8
  %156 = load ptr, ptr %6, align 8, !tbaa !74
  store i8 %155, ptr %156, align 1, !tbaa !35
  call void @llvm.lifetime.end.p0(i64 4, ptr %7) #7
  br label %164

157:                                              ; preds = %62
  %158 = load ptr, ptr %4, align 8, !tbaa !56
  %159 = getelementptr inbounds nuw %struct.VP8MBInfo, ptr %158, i32 0, i32 1
  %160 = load i8, ptr %159, align 1, !tbaa !80
  %161 = load ptr, ptr %6, align 8, !tbaa !74
  store i8 %160, ptr %161, align 1, !tbaa !35
  br label %164

162:                                              ; preds = %62
  %163 = load ptr, ptr %6, align 8, !tbaa !74
  store i8 0, ptr %163, align 1, !tbaa !35
  br label %164

164:                                              ; preds = %162, %157, %153, %129, %125, %97, %89, %82
  call void @llvm.lifetime.end.p0(i64 8, ptr %6) #7
  br label %165

165:                                              ; preds = %164, %57
  call void @llvm.lifetime.end.p0(i64 8, ptr %5) #7
  call void @llvm.lifetime.end.p0(i64 8, ptr %4) #7
  call void @llvm.lifetime.end.p0(i64 8, ptr %3) #7
  ret void
}