; Function Attrs: nounwind uwtable
define internal fastcc void @StoreSideInfo(ptr noundef nonnull readonly captures(none) %0) unnamed_addr #0 {
  %2 = getelementptr inbounds nuw i8, ptr %0, i64 40
  %3 = load ptr, ptr %2, align 8, !tbaa !45
  %4 = getelementptr inbounds nuw i8, ptr %0, i64 48
  %5 = load ptr, ptr %4, align 8, !tbaa !49
  %6 = getelementptr inbounds nuw i8, ptr %3, i64 8
  %7 = load ptr, ptr %6, align 8, !tbaa !30
  %8 = getelementptr inbounds nuw i8, ptr %7, i64 128
  %9 = load ptr, ptr %8, align 8, !tbaa !86
  %.not = icmp eq ptr %9, null
  br i1 %.not, label %60, label %10

10:                                               ; preds = %1
  %11 = getelementptr inbounds nuw i8, ptr %0, i64 8
  %12 = load ptr, ptr %11, align 8, !tbaa !89
  %13 = getelementptr inbounds nuw i8, ptr %0, i64 16
  %14 = load ptr, ptr %13, align 8, !tbaa !90
  %15 = load ptr, ptr @VP8SSE16x16, align 8, !tbaa !50
  %16 = tail call i32 %15(ptr noundef %12, ptr noundef %14) #8
  %17 = sext i32 %16 to i64
  %18 = getelementptr inbounds nuw i8, ptr %3, i64 23512
  %19 = load i64, ptr %18, align 8, !tbaa !82
  %20 = add i64 %19, %17
  store i64 %20, ptr %18, align 8, !tbaa !82
  %21 = load ptr, ptr @VP8SSE8x8, align 8, !tbaa !50
  %22 = getelementptr inbounds nuw i8, ptr %12, i64 16
  %23 = getelementptr inbounds nuw i8, ptr %14, i64 16
  %24 = tail call i32 %21(ptr noundef nonnull %22, ptr noundef nonnull %23) #8
  %25 = sext i32 %24 to i64
  %26 = getelementptr inbounds nuw i8, ptr %3, i64 23520
  %27 = load i64, ptr %26, align 8, !tbaa !82
  %28 = add i64 %27, %25
  store i64 %28, ptr %26, align 8, !tbaa !82
  %29 = load ptr, ptr @VP8SSE8x8, align 8, !tbaa !50
  %30 = getelementptr inbounds nuw i8, ptr %12, i64 24
  %31 = getelementptr inbounds nuw i8, ptr %14, i64 24
  %32 = tail call i32 %29(ptr noundef nonnull %30, ptr noundef nonnull %31) #8
  %33 = sext i32 %32 to i64
  %34 = getelementptr inbounds nuw i8, ptr %3, i64 23528
  %35 = load i64, ptr %34, align 8, !tbaa !82
  %36 = add i64 %35, %33
  store i64 %36, ptr %34, align 8, !tbaa !82
  %37 = getelementptr inbounds nuw i8, ptr %3, i64 23544
  %38 = load i64, ptr %37, align 8, !tbaa !91
  %39 = add i64 %38, 256
  store i64 %39, ptr %37, align 8, !tbaa !91
  %40 = load i8, ptr %5, align 4
  %41 = and i8 %40, 3
  %42 = icmp eq i8 %41, 0
  %43 = zext i1 %42 to i32
  %44 = getelementptr inbounds nuw i8, ptr %3, i64 23604
  %45 = load i32, ptr %44, align 4, !tbaa !51
  %46 = add nsw i32 %45, %43
  store i32 %46, ptr %44, align 4, !tbaa !51
  %47 = load i8, ptr %5, align 4
  %48 = and i8 %47, 3
  %49 = icmp eq i8 %48, 1
  %50 = zext i1 %49 to i32
  %51 = getelementptr inbounds nuw i8, ptr %3, i64 23608
  %52 = load i32, ptr %51, align 4, !tbaa !51
  %53 = add nsw i32 %52, %50
  store i32 %53, ptr %51, align 4, !tbaa !51
  %54 = load i8, ptr %5, align 4
  %55 = lshr i8 %54, 4
  %.lobit = and i8 %55, 1
  %56 = zext nneg i8 %.lobit to i32
  %57 = getelementptr inbounds nuw i8, ptr %3, i64 23612
  %58 = load i32, ptr %57, align 4, !tbaa !51
  %59 = add nsw i32 %58, %56
  store i32 %59, ptr %57, align 4, !tbaa !51
  br label %60

60:                                               ; preds = %10, %1
  %61 = getelementptr inbounds nuw i8, ptr %7, i64 120
  %62 = load ptr, ptr %61, align 8, !tbaa !92
  %.not36 = icmp eq ptr %62, null
  br i1 %.not36, label %117, label %63

63:                                               ; preds = %60
  %64 = load i32, ptr %0, align 8, !tbaa !93
  %65 = getelementptr inbounds nuw i8, ptr %0, i64 4
  %66 = load i32, ptr %65, align 4, !tbaa !94
  %67 = getelementptr inbounds nuw i8, ptr %3, i64 48
  %68 = load i32, ptr %67, align 8, !tbaa !25
  %69 = mul nsw i32 %68, %66
  %70 = add nsw i32 %69, %64
  %71 = sext i32 %70 to i64
  %72 = getelementptr inbounds i8, ptr %62, i64 %71
  %73 = getelementptr inbounds nuw i8, ptr %7, i64 112
  %74 = load i32, ptr %73, align 8, !tbaa !95
  switch i32 %74, label %.sink.split [
    i32 1, label %75
    i32 2, label %78
    i32 3, label %82
    i32 4, label %91
    i32 5, label %99
    i32 6, label %103
    i32 7, label %114
  ]

75:                                               ; preds = %63
  %76 = load i8, ptr %5, align 4
  %77 = and i8 %76, 3
  br label %.sink.split

78:                                               ; preds = %63
  %79 = load i8, ptr %5, align 4
  %80 = lshr i8 %79, 5
  %81 = and i8 %80, 3
  br label %.sink.split

82:                                               ; preds = %63
  %83 = load i8, ptr %5, align 4
  %84 = lshr i8 %83, 5
  %85 = and i8 %84, 3
  %86 = zext nneg i8 %85 to i64
  %.idx = mul nuw nsw i64 %86, 744
  %87 = getelementptr i8, ptr %3, i64 1288
  %88 = getelementptr i8, ptr %87, i64 %.idx
  %89 = load i32, ptr %88, align 8, !tbaa !96
  %90 = trunc i32 %89 to i8
  br label %.sink.split

91:                                               ; preds = %63
  %92 = load i8, ptr %5, align 4
  %93 = and i8 %92, 3
  %94 = icmp eq i8 %93, 1
  br i1 %94, label %95, label %.sink.split

95:                                               ; preds = %91
  %96 = getelementptr inbounds nuw i8, ptr %0, i64 64
  %97 = load ptr, ptr %96, align 8, !tbaa !99
  %98 = load i8, ptr %97, align 1, !tbaa !24
  br label %.sink.split

99:                                               ; preds = %63
  %100 = load i8, ptr %5, align 4
  %101 = lshr i8 %100, 2
  %102 = and i8 %101, 3
  br label %.sink.split

103:                                              ; preds = %63
  %104 = getelementptr inbounds nuw i8, ptr %0, i64 304
  %105 = load i64, ptr %104, align 8, !tbaa !80
  %106 = getelementptr inbounds nuw i8, ptr %0, i64 312
  %107 = load i64, ptr %106, align 8, !tbaa !81
  %108 = add i64 %105, 7
  %109 = add i64 %108, %107
  %110 = lshr i64 %109, 3
  %111 = trunc i64 %110 to i32
  %112 = tail call i32 @llvm.smin.i32(i32 %111, i32 255)
  %113 = trunc i32 %112 to i8
  br label %.sink.split

114:                                              ; preds = %63
  %115 = getelementptr inbounds nuw i8, ptr %5, i64 1
  %116 = load i8, ptr %115, align 1, !tbaa !100
  br label %.sink.split

.sink.split:                                      ; preds = %63, %95, %91, %114, %103, %99, %82, %78, %75
  %.sink = phi i8 [ %77, %75 ], [ %81, %78 ], [ %90, %82 ], [ %102, %99 ], [ %113, %103 ], [ %116, %114 ], [ %98, %95 ], [ -1, %91 ], [ 0, %63 ]
  store i8 %.sink, ptr %72, align 1, !tbaa !24
  br label %117

117:                                              ; preds = %.sink.split, %60
  ret void
}